(lp1
I0
a(lp2
F2.5499999999999998
aI20
aa(lp3
F3.4900000000000002
aI76
aa(lp4
F3.5699999999999998
aI51
aa(lp5
F4.3499999999999996
aI204
aa(lp6
F3.9100000000000001
aI100
aa(lp7
F3.2599999999999998
aI44
aa(lp8
F3.4700000000000002
aI88
aa(lp9
F3.8700000000000001
aI116
aa(lp10
F3.7599999999999998
aI45
aa(lp11
F3.7000000000000002
aI46
aa(lp12
F4.0800000000000001
aI38
aa(lp13
F2.75
aI61
aa(lp14
F3.75
aI53
aa(lp15
F2.9500000000000002
aI20
aa(lp16
F2.6200000000000001
aI1700
aa(lp17
F4.1200000000000001
aI29
aa(lp18
F3.7400000000000002
aI363
aa(lp19
F3.2400000000000002
aI51
aa(lp20
F3.5299999999999998
aI423
aa(lp21
F3.29
aI98
aa(lp22
F3.5099999999999998
aI162
aa(lp23
F3.27
aI220
aa(lp24
F3.6299999999999999
aI726
aa(lp25
F3.6699999999999999
aI21
aa(lp26
F3.1200000000000001
aI26
aa(lp27
F3.4700000000000002
aI172
aa(lp28
F3.8300000000000001
aI23
aa(lp29
F4.2800000000000002
aI50
aa(lp30
F2.8599999999999999
aI22
aa(lp31
F3.77
aI1011
aa(lp32
F4.1699999999999999
aI69
aa(lp33
F3.6699999999999999
aI48
aa(lp34
F3.2799999999999998
aI138
aa(lp35
F3.9399999999999999
aI187
aa(lp36
F2.3999999999999999
aI20
aa(lp37
F3.6200000000000001
aI104
aa(lp38
F4.0599999999999996
aI32
aa(lp39
F4.29
aI111
aa(lp40
F3.79
aI62
aa(lp41
F4.5099999999999998
aI43
aa(lp42
F3.8700000000000001
aI199
aa(lp43
F4.0099999999999998
aI70
aa(lp44
F3
aI110
aa(lp45
F3.3599999999999999
aI25
aa(lp46
F3.6200000000000001
aI21
aa(lp47
F4.9500000000000002
aI39
aa(lp48
F3.8700000000000001
aI38
aa(lp49
F3.5099999999999998
aI513
aa(lp50
F3.46
aI99
aa(lp51
F3.2799999999999998
aI46
aa(lp52
F3.9700000000000002
aI31
aa(lp53
F3.6899999999999999
aI68
aa(lp54
F2.7799999999999998
aI46
aa(lp55
F3.7999999999999998
aI44
aa(lp56
F3.6299999999999999
aI38
aa(lp57
F3.6099999999999999
aI522
aa(lp58
F3.96
aI209
aa(lp59
F3.4100000000000001
aI73
aa(lp60
F3.0800000000000001
aI78
aa(lp61
F4.1799999999999997
aI55
aa(lp62
F3.27
aI166
aa(lp63
F4.04
aI53
aa(lp64
F3.7599999999999998
aI97
aa(lp65
F4
aI21
aa(lp66
F4.1500000000000004
aI27
aa(lp67
F3.96
aI49
aa(lp68
F3.7599999999999998
aI103
aa(lp69
F3.6299999999999999
aI123
aa(lp70
F4.1399999999999997
aI81
aa(lp71
F4.2000000000000002
aI83
aa(lp72
F4.2599999999999998
aI23
aa(lp73
F3.2400000000000002
aI191
aa(lp74
F3.3700000000000001
aI1610
aa(lp75
F4.0999999999999996
aI49
aa(lp76
F3.2799999999999998
aI145
aa(lp77
F3.7999999999999998
aI20
aa(lp78
F3.3199999999999998
aI315
aa(lp79
F4.2999999999999998
aI263
aa(lp80
F2.52
aI55
aa(lp81
F3.5899999999999999
aI37
aa(lp82
F3.9500000000000002
aI160
aa(lp83
F3.5899999999999999
aI39
aa(lp84
F3.9300000000000002
aI161
aa(lp85
F3.7200000000000002
aI116
aa(lp86
F3.1899999999999999
aI107
aa(lp87
F3.5899999999999999
aI190
aa(lp88
F3.29
aI31
aa(lp89
F3.3799999999999999
aI255
aa(lp90
F4.5899999999999999
aI66
aa(lp91
F3.7400000000000002
aI50
aa(lp92
F4.1699999999999999
aI150
aa(lp93
F3.1499999999999999
aI123
aa(lp94
F3.7999999999999998
aI159
aa(lp95
F3.4100000000000001
aI196
aa(lp96
F3.8999999999999999
aI299
aa(lp97
F4.1399999999999997
aI76
aa(lp98
F3.02
aI128
aa(lp99
F4.3300000000000001
aI71
aa(lp100
F3.4300000000000002
aI188
aa(lp101
F3.3999999999999999
aI25
aa(lp102
F3.8999999999999999
aI55
aa(lp103
F3.9700000000000002
aI678
aa(lp104
F3.3900000000000001
aI94
aa(lp105
F4.0499999999999998
aI76
aa(lp106
F3.3599999999999999
aI525
aa(lp107
F3.8399999999999999
aI45
aa(lp108
F2.8599999999999999
aI32
aa(lp109
F3.4500000000000002
aI31
aa(lp110
F4.1100000000000003
aI23
aa(lp111
F4.1600000000000001
aI120
aa(lp112
F3.5099999999999998
aI341
aa(lp113
F4.0499999999999998
aI21
aa(lp114
F4.6299999999999999
aI27
aa(lp115
F4.0800000000000001
aI25
aa(lp116
F4.1100000000000003
aI41
aa(lp117
F3.8999999999999999
aI25
aa(lp118
F3.8199999999999998
aI55
aa(lp119
F4
aI189
aa(lp120
F3.5
aI641
aa(lp121
F3.4900000000000002
aI138
aa(lp122
F4.04
aI80
aa(lp123
F2.8500000000000001
aI40
aa(lp124
F3.7599999999999998
aI33
aa(lp125
F3.7599999999999998
aI85
aa(lp126
F4.0199999999999996
aI210
aa(lp127
F3.6099999999999999
aI64
aa(lp128
F4.0499999999999998
aI21
aa(lp129
F3.8599999999999999
aI323
aa(lp130
F3.1899999999999999
aI26
aa(lp131
F3.29
aI375
aa(lp132
F3.73
aI44
aa(lp133
F4.2800000000000002
aI94
aa(lp134
F2.3700000000000001
aI178
aa(lp135
F4.0099999999999998
aI311
aa(lp136
F2.6400000000000001
aI22
aa(lp137
F3.8199999999999998
aI50
aa(lp138
F3.7400000000000002
aI80
aa(lp139
F3.1899999999999999
aI81
aa(lp140
F3.6099999999999999
aI68
aa(lp141
F3.3999999999999999
aI46
aa(lp142
F3.23
aI31
aa(lp143
F2.7000000000000002
aI61
aa(lp144
F3.7000000000000002
aI77
aa(lp145
F3.5099999999999998
aI41
aa(lp146
F4.5
aI38
aa(lp147
F3.5499999999999998
aI73
aa(lp148
F4.1399999999999997
aI38
aa(lp149
F4.0099999999999998
aI132
aa(lp150
F3.48
aI231
aa(lp151
F3.1099999999999999
aI413
aa(lp152
F3.73
aI64
aa(lp153
F3.4199999999999999
aI218
aa(lp154
F4.2400000000000002
aI51
aa(lp155
F3.96
aI26
aa(lp156
F3.6899999999999999
aI51
aa(lp157
F4.2000000000000002
aI45
aa(lp158
F3.3999999999999999
aI326
aa(lp159
F3.1699999999999999
aI21
aa(lp160
F3.5699999999999998
aI148
aa(lp161
F3.9399999999999999
aI100
aa(lp162
F3.5899999999999999
aI90
aa(lp163
F3.3999999999999999
aI30
aa(lp164
F3.1899999999999999
aI81
aa(lp165
F3.71
aI82
aa(lp166
F2.8500000000000001
aI487
aa(lp167
F3.6400000000000001
aI56
aa(lp168
F3.9199999999999999
aI24
aa(lp169
F3.2599999999999998
aI116
aa(lp170
F4.1100000000000003
aI113
aa(lp171
F2.5600000000000001
aI26
aa(lp172
F4.0800000000000001
aI48
aa(lp173
F3.75
aI24
aa(lp174
F4
aI40
aa(lp175
F3.0699999999999998
aI21
aa(lp176
F3.7400000000000002
aI125
aa(lp177
F2.9399999999999999
aI256
aa(lp178
F3.9700000000000002
aI224
aa(lp179
F3.52
aI130
aa(lp180
F3.9100000000000001
aI38
aa(lp181
F3.46
aI24
aa(lp182
F4.3499999999999996
aI27
aa(lp183
F3.8199999999999998
aI131
aa(lp184
F4
aI41
aa(lp185
F3.73
aI45
aa(lp186
F3.6099999999999999
aI204
aa(lp187
F3.7999999999999998
aI42
aa(lp188
F3.6800000000000002
aI324
aa(lp189
F3.5800000000000001
aI100
aa(lp190
F2.6800000000000002
aI176
aa(lp191
F4
aI60
aa(lp192
F3.0299999999999998
aI29
aa(lp193
F3.5099999999999998
aI55
aa(lp194
F4.2400000000000002
aI66
aa(lp195
F3.48
aI50
aa(lp196
F2.9500000000000002
aI485
aa(lp197
F3.6699999999999999
aI99
aa(lp198
F4.0599999999999996
aI63
aa(lp199
F3.77
aI75
aa(lp200
F3.6499999999999999
aI422
aa(lp201
F3.25
aI253
aa(lp202
F4.1299999999999999
aI122
aa(lp203
F3.7000000000000002
aI76
aa(lp204
F3.9900000000000002
aI37
aa(lp205
F3.3700000000000001
aI31
aa(lp206
F3.4100000000000001
aI206
aa(lp207
F3.4100000000000001
aI39
aa(lp208
F1.8
aI46
aa(lp209
F4.0099999999999998
aI48
aa(lp210
F2.8500000000000001
aI20
aa(lp211
F2.9500000000000002
aI32
aa(lp212
F4.3099999999999996
aI55
aa(lp213
F3.1099999999999999
aI876
aa(lp214
F2.6600000000000001
aI910
aa(lp215
F4.0199999999999996
aI214
aa(lp216
F3.8500000000000001
aI54
aa(lp217
F4.3799999999999999
aI82
aa(lp218
F4.21
aI104
aa(lp219
F3.8900000000000001
aI42
aa(lp220
F3.73
aI138
aa(lp221
F3.5499999999999998
aI289
aa(lp222
F2.77
aI20
aa(lp223
F4.1299999999999999
aI88
aa(lp224
F3.8100000000000001
aI36
aa(lp225
F4.1799999999999997
aI88
aa(lp226
F4.1100000000000003
aI28
aa(lp227
F3.1499999999999999
aI36
aa(lp228
F3.6899999999999999
aI26
aa(lp229
F4.25
aI60
aa(lp230
F4.0800000000000001
aI33
aa(lp231
F4.4699999999999998
aI94
aa(lp232
F4.0599999999999996
aI32
aa(lp233
F3.9700000000000002
aI682
aa(lp234
F3.1899999999999999
aI36
aa(lp235
F3.7999999999999998
aI115
aa(lp236
F4.2199999999999998
aI155
aa(lp237
F4.0199999999999996
aI224
aa(lp238
F3.27
aI44
aa(lp239
F3.5699999999999998
aI91
aa(lp240
F3.71
aI291
aa(lp241
F3.9300000000000002
aI230
aa(lp242
F3.1600000000000001
aI56
aa(lp243
F4.4699999999999998
aI399
aa(lp244
F3.3900000000000001
aI307
aa(lp245
F3.6600000000000001
aI74
aa(lp246
F3.9500000000000002
aI125
aa(lp247
F3.6200000000000001
aI26
aa(lp248
F3.52
aI285
aa(lp249
F4.29
aI99
aa(lp250
F3.6000000000000001
aI20
aa(lp251
F4.2599999999999998
aI155
aa(lp252
F4.3399999999999999
aI119
aa(lp253
F3.6099999999999999
aI38
aa(lp254
F3.6600000000000001
aI205
aa(lp255
F3.48
aI141
aa(lp256
F3.6400000000000001
aI145
aa(lp257
F3.1899999999999999
aI27
aa(lp258
F3.6099999999999999
aI103
aa(lp259
F4.1900000000000004
aI32
aa(lp260
F3.54
aI28
aa(lp261
F3.77
aI41
aa(lp262
F3.6299999999999999
aI50
aa(lp263
F2.6099999999999999
aI676
aa(lp264
F3.25
aI114
aa(lp265
F4.1500000000000004
aI33
aa(lp266
F3.9700000000000002
aI183
aa(lp267
F3.7200000000000002
aI39
aa(lp268
F4.0899999999999999
aI41
aa(lp269
F3.6299999999999999
aI400
aa(lp270
F3.3999999999999999
aI25
aa(lp271
F3.7200000000000002
aI229
aa(lp272
F3.7599999999999998
aI72
aa(lp273
F3.7200000000000002
aI39
aa(lp274
F4.3099999999999996
aI92
aa(lp275
F3.5299999999999998
aI39
aa(lp276
F4.4500000000000002
aI202
aa(lp277
F2.8799999999999999
aI21
aa(lp278
F3.98
aI58
aa(lp279
F3.6400000000000001
aI53
aa(lp280
F3.1899999999999999
aI57
aa(lp281
F4.3200000000000003
aI22
aa(lp282
F3.98
aI82
aa(lp283
F3.6200000000000001
aI127
aa(lp284
F3.7000000000000002
aI189
aa(lp285
F3.3300000000000001
aI52
aa(lp286
F3.1600000000000001
aI422
aa(lp287
F2.98
aI43
aa(lp288
F4.5300000000000002
aI254
aa(lp289
F3.8100000000000001
aI75
aa(lp290
F3.6699999999999999
aI20
aa(lp291
F4.3899999999999997
aI67
aa(lp292
F4.2300000000000004
aI87
aa(lp293
F3.9500000000000002
aI278
aa(lp294
F3.4700000000000002
aI79
aa(lp295
F3.5800000000000001
aI947
aa(lp296
F3.9399999999999999
aI236
aa(lp297
F3.98
aI20
aa(lp298
F3.6099999999999999
aI138
aa(lp299
F4.7999999999999998
aI75
aa(lp300
F4.1600000000000001
aI367
aa(lp301
F4.0599999999999996
aI44
aa(lp302
F3.4100000000000001
aI23
aa(lp303
F3.3399999999999999
aI35
aa(lp304
F3.6400000000000001
aI223
aa(lp305
F3.8700000000000001
aI113
aa(lp306
F2.7200000000000002
aI29
aa(lp307
F3.4100000000000001
aI645
aa(lp308
F4.2599999999999998
aI72
aa(lp309
F3.5099999999999998
aI61
aa(lp310
F4.2999999999999998
aI128
aa(lp311
F2.6699999999999999
aI20
aa(lp312
F3.0099999999999998
aI1019
aa(lp313
F3.2999999999999998
aI284
aa(lp314
F3.5299999999999998
aI302
aa(lp315
F4.3099999999999996
aI34
aa(lp316
F2.4500000000000002
aI55
aa(lp317
F3.6200000000000001
aI140
aa(lp318
F3.5
aI22
aa(lp319
F3.2400000000000002
aI59
aa(lp320
F3.3999999999999999
aI20
aa(lp321
F3.7999999999999998
aI58
aa(lp322
F3.71
aI75
aa(lp323
F3.77
aI43
aa(lp324
F3.8300000000000001
aI23
aa(lp325
F3.5
aI151
aa(lp326
F2.52
aI20
aa(lp327
F3.48
aI27
aa(lp328
F4.0499999999999998
aI63
aa(lp329
F3.3999999999999999
aI170
aa(lp330
F3.8599999999999999
aI22
aa(lp331
F3.46
aI95
aa(lp332
F3.5800000000000001
aI25
aa(lp333
F3.1299999999999999
aI32
aa(lp334
F4.2599999999999998
aI81
aa(lp335
F3.9900000000000002
aI34
aa(lp336
F3.4100000000000001
aI23
aa(lp337
F3.4199999999999999
aI31
aa(lp338
F2.9500000000000002
aI20
aa(lp339
F3.4700000000000002
aI57
aa(lp340
F3.8199999999999998
aI105
aa(lp341
F3.8799999999999999
aI39
aa(lp342
F3.6099999999999999
aI22
aa(lp343
F4.1799999999999997
aI187
aa(lp344
F3.8300000000000001
aI42
aa(lp345
F3.6299999999999999
aI177
aa(lp346
F3.75
aI214
aa(lp347
F3.4500000000000002
aI329
aa(lp348
F3.8599999999999999
aI22
aa(lp349
F3.6400000000000001
aI53
aa(lp350
F3.52
aI23
aa(lp351
F3.8300000000000001
aI168
aa(lp352
F4.1699999999999999
aI40
aa(lp353
F3.8500000000000001
aI84
aa(lp354
F2.6000000000000001
aI521
aa(lp355
F3.8999999999999999
aI52
aa(lp356
F3.6200000000000001
aI308
aa(lp357
F2.8599999999999999
aI21
aa(lp358
F4.2699999999999996
aI30
aa(lp359
F3.1800000000000002
aI617
aa(lp360
F3.6699999999999999
aI46
aa(lp361
F3.7599999999999998
aI38
aa(lp362
F3.6000000000000001
aI70
aa(lp363
F3.7999999999999998
aI119
aa(lp364
F3.71
aI201
aa(lp365
F3.0800000000000001
aI36
aa(lp366
F4.1200000000000001
aI70
aa(lp367
F3.4100000000000001
aI34
aa(lp368
F3.3500000000000001
aI217
aa(lp369
F3.8599999999999999
aI21
aa(lp370
F3.6699999999999999
aI51
aa(lp371
F3.9700000000000002
aI100
aa(lp372
F3.8100000000000001
aI161
aa(lp373
F3.7000000000000002
aI33
aa(lp374
F3.5499999999999998
aI219
aa(lp375
F3.3900000000000001
aI33
aa(lp376
F3.5600000000000001
aI25
aa(lp377
F3.9199999999999999
aI59
aa(lp378
F3.3599999999999999
aI25
aa(lp379
F3.2400000000000002
aI147
aa(lp380
F3.6800000000000002
aI71
aa(lp381
F3.3700000000000001
aI1063
aa(lp382
F3.23
aI110
aa(lp383
F3.0899999999999999
aI314
aa(lp384
F3.4399999999999999
aI62
aa(lp385
F3.23
aI485
aa(lp386
F3.4900000000000002
aI99
aa(lp387
F2.8700000000000001
aI121
aa(lp388
F4.21
aI279
aa(lp389
F3.6499999999999999
aI792
aa(lp390
F3.4700000000000002
aI51
aa(lp391
F3.25
aI153
aa(lp392
F3.73
aI113
aa(lp393
F3.04
aI25
aa(lp394
F3.1400000000000001
aI51
aa(lp395
F2.79
aI205
aa(lp396
F3.2200000000000002
aI23
aa(lp397
F3.25
aI141
aa(lp398
F3.5099999999999998
aI59
aa(lp399
F4
aI53
aa(lp400
F3.25
aI20
aa(lp401
F3.5899999999999999
aI58
aa(lp402
F4.4199999999999999
aI72
aa(lp403
F3.6699999999999999
aI319
aa(lp404
F3.96
aI24
aa(lp405
F3.6600000000000001
aI38
aa(lp406
F3.6600000000000001
aI412
aa(lp407
F4.1799999999999997
aI73
aa(lp408
F4.1600000000000001
aI323
aa(lp409
F3.6400000000000001
aI222
aa(lp410
F4.1600000000000001
aI51
aa(lp411
F4.04
aI28
aa(lp412
F3.7000000000000002
aI27
aa(lp413
F2.8999999999999999
aI219
aa(lp414
F3.8599999999999999
aI22
aa(lp415
F2.6400000000000001
aI81
aa(lp416
F4
aI26
aa(lp417
F3.21
aI107
aa(lp418
F3.79
aI139
aa(lp419
F3.5800000000000001
aI168
aa(lp420
F3.6400000000000001
aI50
aa(lp421
F3.8100000000000001
aI98
aa(lp422
F2.96
aI47
aa(lp423
F3.98
aI85
aa(lp424
F3.6299999999999999
aI347
aa(lp425
F3.25
aI30
aa(lp426
F3.3900000000000001
aI55
aa(lp427
F3.3399999999999999
aI254
aa(lp428
F3.8900000000000001
aI294
aa(lp429
F3.7400000000000002
aI166
aa(lp430
F2.2400000000000002
aI27
aa(lp431
F3.9500000000000002
aI305
aa(lp432
F4.1399999999999997
aI268
aa(lp433
F4.4100000000000001
aI62
aa(lp434
F3.8300000000000001
aI198
aa(lp435
F3.6899999999999999
aI192
aa(lp436
F4.2199999999999998
aI23
aa(lp437
F4.0999999999999996
aI62
aa(lp438
F3.5800000000000001
aI24
aa(lp439
F4.3799999999999999
aI20
aa(lp440
F3.0699999999999998
aI260
aa(lp441
F3.6699999999999999
aI40
aa(lp442
F3.8500000000000001
aI120
aa(lp443
F4.2199999999999998
aI225
aa(lp444
F4.8499999999999996
aI40
aa(lp445
F3.2999999999999998
aI20
aa(lp446
F3.4500000000000002
aI20
aa(lp447
F4.6200000000000001
aI25
aa(lp448
F3.02
aI87
aa(lp449
F4.75
aI20
aa(lp450
F4.29
aI24
aa(lp451
F4.3200000000000003
aI120
aa(lp452
F3.6499999999999999
aI52
aa(lp453
F3.1899999999999999
aI1340
aa(lp454
F3.5699999999999998
aI86
aa(lp455
F4.5
aI27
aa(lp456
F3.6800000000000002
aI31
aa(lp457
F3.8399999999999999
aI67
aa(lp458
F2.5
aI713
aa(lp459
F3.6600000000000001
aI76
aa(lp460
F3.9500000000000002
aI22
aa(lp461
F3.71
aI284
aa(lp462
F2.8399999999999999
aI696
aa(lp463
F3.3599999999999999
aI51
aa(lp464
F3.3599999999999999
aI483
aa(lp465
F4.2300000000000004
aI30
aa(lp466
F3.9199999999999999
aI39
aa(lp467
F3.7999999999999998
aI216
aa(lp468
F3.8799999999999999
aI64
aa(lp469
F2.9700000000000002
aI1291
aa(lp470
F3.5499999999999998
aI21
aa(lp471
F3.2799999999999998
aI69
aa(lp472
F3.6299999999999999
aI216
aa(lp473
F3.79
aI830
aa(lp474
F4.3200000000000003
aI76
aa(lp475
F4.0199999999999996
aI41
aa(lp476
F2.7599999999999998
aI655
aa(lp477
F3.0699999999999998
aI46
aa(lp478
F2.9500000000000002
aI21
aa(lp479
F4.3099999999999996
aI74
aa(lp480
F4.0599999999999996
aI99
aa(lp481
F4
aI378
aa(lp482
F4.1399999999999997
aI436
aa(lp483
F3.8300000000000001
aI59
aa(lp484
F3.5800000000000001
aI119
aa(lp485
F3.8999999999999999
aI20
aa(lp486
F3.48
aI20
aa(lp487
F3.6299999999999999
aI138
aa(lp488
F3.77
aI152
aa(lp489
F4.1100000000000003
aI54
aa(lp490
F3.8799999999999999
aI24
aa(lp491
F3.5499999999999998
aI22
aa(lp492
F3.5099999999999998
aI63
aa(lp493
F3.5699999999999998
aI74
aa(lp494
F3.52
aI110
aa(lp495
F4.0099999999999998
aI78
aa(lp496
F4.0800000000000001
aI25
aa(lp497
F3.9100000000000001
aI126
aa(lp498
F3.79
aI105
aa(lp499
F3.25
aI20
aa(lp500
F4.2699999999999996
aI33
aa(lp501
F2.98
aI249
aa(lp502
F3.9300000000000002
aI203
aa(lp503
F3.96
aI113
aa(lp504
F3.8100000000000001
aI44
aa(lp505
F2.8799999999999999
aI24
aa(lp506
F3.27
aI395
aa(lp507
F3.29
aI21
aa(lp508
F3.29
aI38
aa(lp509
F3.8799999999999999
aI48
aa(lp510
F3.3700000000000001
aI923
aa(lp511
F3.25
aI161
aa(lp512
F4.29
aI31
aa(lp513
F4.2400000000000002
aI27
aa(lp514
F3.8199999999999998
aI22
aa(lp515
F3.5299999999999998
aI376
aa(lp516
F4.3200000000000003
aI34
aa(lp517
F3.46
aI149
aa(lp518
F4.29
aI42
aa(lp519
F3.5699999999999998
aI707
aa(lp520
F4.4000000000000004
aI160
aa(lp521
F3.3700000000000001
aI154
aa(lp522
F4.2000000000000002
aI49
aa(lp523
F3.1699999999999999
aI250
aa(lp524
F4.04
aI126
aa(lp525
F3.7999999999999998
aI64
aa(lp526
F3.6600000000000001
aI138
aa(lp527
F4.1100000000000003
aI27
aa(lp528
F3.1699999999999999
aI135
aa(lp529
F3.3999999999999999
aI127
aa(lp530
F3.5299999999999998
aI604
aa(lp531
F3.8100000000000001
aI78
aa(lp532
F2.98
aI132
aa(lp533
F3.6800000000000002
aI51
aa(lp534
F3.3500000000000001
aI163
aa(lp535
F3.6400000000000001
aI303
aa(lp536
F3.02
aI63
aa(lp537
F3.8700000000000001
aI109
aa(lp538
F4
aI307
aa(lp539
F3.6000000000000001
aI25
aa(lp540
F4
aI26
aa(lp541
F3.7000000000000002
aI20
aa(lp542
F3.2799999999999998
aI29
aa(lp543
F3.8599999999999999
aI63
aa(lp544
F4.3499999999999996
aI46
aa(lp545
F4.4699999999999998
aI268
aa(lp546
F3.8999999999999999
aI92
aa(lp547
F4.4199999999999999
aI65
aa(lp548
F3.3700000000000001
aI2391
aa(lp549
F3.3799999999999999
aI138
aa(lp550
F3.0899999999999999
aI22
aa(lp551
F3.5899999999999999
aI135
aa(lp552
F3.3999999999999999
aI85
aa(lp553
F2.71
aI38
aa(lp554
F4
aI201
aa(lp555
F3.3599999999999999
aI64
aa(lp556
F3.1699999999999999
aI75
aa(lp557
F4.4000000000000004
aI25
aa(lp558
F2.7000000000000002
aI66
aa(lp559
F4.3399999999999999
aI215
aa(lp560
F4.4199999999999999
aI129
aa(lp561
F3.9100000000000001
aI100
aa(lp562
F3.6000000000000001
aI296
aa(lp563
F4.0199999999999996
aI253
aa(lp564
F3.8999999999999999
aI158
aa(lp565
F3.5499999999999998
aI1868
aa(lp566
F3.7000000000000002
aI27
aa(lp567
F4.4100000000000001
aI22
aa(lp568
F4.3099999999999996
aI34
aa(lp569
F4.1399999999999997
aI37
aa(lp570
F4.1100000000000003
aI85
aa(lp571
F3.6600000000000001
aI128
aa(lp572
F3.6499999999999999
aI59
aa(lp573
F3.6800000000000002
aI106
aa(lp574
F3.5299999999999998
aI38
aa(lp575
F3.5099999999999998
aI342
aa(lp576
F3.3900000000000001
aI547
aa(lp577
F3.79
aI38
aa(lp578
F4.3499999999999996
aI279
aa(lp579
F2.7200000000000002
aI34
aa(lp580
F1.3300000000000001
aI21
aa(lp581
F3.27
aI922
aa(lp582
F1.46
aI49
aa(lp583
F3.6099999999999999
aI138
aa(lp584
F4.1500000000000004
aI20
aa(lp585
F3.7599999999999998
aI193
aa(lp586
F4.25
aI300
aa(lp587
F3.4100000000000001
aI57
aa(lp588
F4.0499999999999998
aI504
aa(lp589
F3.6699999999999999
aI52
aa(lp590
F3.6000000000000001
aI43
aa(lp591
F3.48
aI89
aa(lp592
F3.23
aI30
aa(lp593
F3.8799999999999999
aI133
aa(lp594
F3.9399999999999999
aI70
aa(lp595
F4.1100000000000003
aI75
aa(lp596
F3.9399999999999999
aI163
aa(lp597
F3.6299999999999999
aI487
aa(lp598
F4.0099999999999998
aI202
aa(lp599
F3.4399999999999999
aI312
aa(lp600
F3.9900000000000002
aI192
aa(lp601
F3.9300000000000002
aI35
aa(lp602
F3.6699999999999999
aI46
aa(lp603
F3.6400000000000001
aI129
aa(lp604
F3.8700000000000001
aI114
aa(lp605
F2.8300000000000001
aI20
aa(lp606
F3.0499999999999998
aI437
aa(lp607
F4.1900000000000004
aI60
aa(lp608
F3.6499999999999999
aI427
aa(lp609
F3.9500000000000002
aI296
aa(lp610
F1.99
aI140
aa(lp611
F3.5600000000000001
aI82
aa(lp612
F3.6699999999999999
aI35
aa(lp613
F3.48
aI66
aa(lp614
F3.79
aI53
aa(lp615
F3.6800000000000002
aI99
aa(lp616
F3.6000000000000001
aI385
aa(lp617
F3.6699999999999999
aI40
aa(lp618
F3.1200000000000001
aI75
aa(lp619
F4.1299999999999999
aI31
aa(lp620
F3.5099999999999998
aI43
aa(lp621
F2.96
aI172
aa(lp622
F3.9300000000000002
aI95
aa(lp623
F4.7300000000000004
aI31
aa(lp624
F4.0700000000000003
aI103
aa(lp625
F2.8900000000000001
aI1735
aa(lp626
F4.1600000000000001
aI67
aa(lp627
F3.5
aI150
aa(lp628
F3.1499999999999999
aI194
aa(lp629
F3.1000000000000001
aI87
aa(lp630
F3.4399999999999999
aI34
aa(lp631
F4.0700000000000003
aI23
aa(lp632
F3.71
aI31
aa(lp633
F4.1699999999999999
aI39
aa(lp634
F3.1299999999999999
aI32
aa(lp635
F2.8900000000000001
aI22
aa(lp636
F3.48
aI22
aa(lp637
F3.5699999999999998
aI30
aa(lp638
F4.1399999999999997
aI25
aa(lp639
F3
aI20
aa(lp640
F3.3799999999999999
aI55
aa(lp641
F3.6499999999999999
aI49
aa(lp642
F3.8999999999999999
aI140
aa(lp643
F3.9199999999999999
aI36
aa(lp644
F3.3999999999999999
aI24
aa(lp645
F3.7400000000000002
aI39
aa(lp646
F3.6800000000000002
aI30
aa(lp647
F4.1299999999999999
aI169
aa(lp648
F4.2699999999999996
aI150
aa(lp649
F3.6299999999999999
aI256
aa(lp650
F3.5099999999999998
aI90
aa(lp651
F3.3100000000000001
aI29
aa(lp652
F3.8999999999999999
aI20
aa(lp653
F4.2199999999999998
aI267
aa(lp654
F4
aI51
aa(lp655
F4.0700000000000003
aI626
aa(lp656
F4.0899999999999999
aI105
aa(lp657
F4.5199999999999996
aI128
aa(lp658
F3.5
aI20
aa(lp659
F4.3499999999999996
aI60
aa(lp660
F3.3900000000000001
aI142
aa(lp661
F4.1699999999999999
aI92
aa(lp662
F3.8300000000000001
aI33
aa(lp663
F3.3999999999999999
aI58
aa(lp664
F3.73
aI26
aa(lp665
F3.7999999999999998
aI519
aa(lp666
F3.29
aI434
aa(lp667
F2.9500000000000002
aI40
aa(lp668
F3.6499999999999999
aI68
aa(lp669
F3.75
aI20
aa(lp670
F3.3500000000000001
aI37
aa(lp671
F3.8100000000000001
aI31
aa(lp672
F3.9199999999999999
aI115
aaI0
a.